; Function Attrs: mustprogress nofree norecurse nosync nounwind willreturn memory(read, inaccessiblemem: none) uwtable
define hidden noundef zeroext i1 @_ZNK19ctx_simplify_tactic10simplifier6sharedEP4expr(ptr noundef nonnull readonly align 8 captures(none) dereferenceable(16) %0, ptr noundef readonly captures(address) %1) local_unnamed_addr #5 align 2 {
  %3 = getelementptr inbounds nuw i8, ptr %1, i64 8
  %4 = load i32, ptr %3, align 4, !tbaa !38
  %5 = icmp ugt i32 %4, 1
  br i1 %5, label %6, label %_ZNK10num_occurs12get_num_occsEP4expr.exit

6:                                                ; preds = %2
  %7 = getelementptr inbounds nuw i8, ptr %0, i64 8
  %8 = load ptr, ptr %7, align 8, !tbaa !39
  %9 = getelementptr inbounds nuw i8, ptr %8, i64 16
  %10 = getelementptr inbounds nuw i8, ptr %1, i64 12
  %11 = load i32, ptr %10, align 4, !tbaa !42
  %12 = getelementptr inbounds nuw i8, ptr %8, i64 24
  %13 = load i32, ptr %12, align 8, !tbaa !43
  %14 = add i32 %13, -1
  %15 = and i32 %14, %11
  %16 = load ptr, ptr %9, align 8, !tbaa !46
  %17 = zext i32 %15 to i64
  %18 = getelementptr inbounds nuw %"class.obj_map<expr, unsigned int>::obj_map_entry", ptr %16, i64 %17
  %19 = zext i32 %13 to i64
  %20 = getelementptr inbounds nuw %"class.obj_map<expr, unsigned int>::obj_map_entry", ptr %16, i64 %19
  %.not35.i.i.i.i = icmp eq i32 %15, %13
  br i1 %.not35.i.i.i.i, label %.preheader.i.i.i.i, label %.lr.ph.i.i.i.i

.preheader.i.i.i.i:                               ; preds = %27, %6
  %.not2737.i.i.i.i = icmp eq i32 %15, 0
  br i1 %.not2737.i.i.i.i, label %_ZNK10num_occurs12get_num_occsEP4expr.exit, label %.lr.ph39.i.i.i.i

.lr.ph.i.i.i.i:                                   ; preds = %6, %27
  %.036.i.i.i.i = phi ptr [ %28, %27 ], [ %18, %6 ]
  %21 = load ptr, ptr %.036.i.i.i.i, align 8, !tbaa !47
  %magicptr30.i.i.i.i = ptrtoint ptr %21 to i64
  switch i64 %magicptr30.i.i.i.i, label %22 [
    i64 0, label %_ZNK10num_occurs12get_num_occsEP4expr.exit
    i64 1, label %27
  ]

22:                                               ; preds = %.lr.ph.i.i.i.i
  %23 = getelementptr inbounds nuw i8, ptr %21, i64 12
  %24 = load i32, ptr %23, align 4, !tbaa !42
  %25 = icmp eq i32 %24, %11
  %26 = icmp eq ptr %21, %1
  %or.cond.i.i.i.i = and i1 %26, %25
  br i1 %or.cond.i.i.i.i, label %.loopexit.i, label %27

27:                                               ; preds = %22, %.lr.ph.i.i.i.i
  %28 = getelementptr inbounds nuw i8, ptr %.036.i.i.i.i, i64 16
  %.not.i.i.i.i = icmp eq ptr %28, %20
  br i1 %.not.i.i.i.i, label %.preheader.i.i.i.i, label %.lr.ph.i.i.i.i, !llvm.loop !50

.lr.ph39.i.i.i.i:                                 ; preds = %.preheader.i.i.i.i, %35
  %.138.i.i.i.i = phi ptr [ %36, %35 ], [ %16, %.preheader.i.i.i.i ]
  %29 = load ptr, ptr %.138.i.i.i.i, align 8, !tbaa !47
  %magicptr32.i.i.i.i = ptrtoint ptr %29 to i64
  switch i64 %magicptr32.i.i.i.i, label %30 [
    i64 0, label %_ZNK10num_occurs12get_num_occsEP4expr.exit
    i64 1, label %35
  ]

30:                                               ; preds = %.lr.ph39.i.i.i.i
  %31 = getelementptr inbounds nuw i8, ptr %29, i64 12
  %32 = load i32, ptr %31, align 4, !tbaa !42
  %33 = icmp eq i32 %32, %11
  %34 = icmp eq ptr %29, %1
  %or.cond31.i.i.i.i = and i1 %34, %33
  br i1 %or.cond31.i.i.i.i, label %.loopexit.i, label %35

35:                                               ; preds = %30, %.lr.ph39.i.i.i.i
  %36 = getelementptr inbounds nuw i8, ptr %.138.i.i.i.i, i64 16
  %.not27.i.i.i.i = icmp eq ptr %36, %18
  br i1 %.not27.i.i.i.i, label %_ZNK10num_occurs12get_num_occsEP4expr.exit, label %.lr.ph39.i.i.i.i, !llvm.loop !51

.loopexit.i:                                      ; preds = %22, %30
  %.026.i.i.i.i = phi ptr [ %.138.i.i.i.i, %30 ], [ %.036.i.i.i.i, %22 ]
  %37 = getelementptr inbounds nuw i8, ptr %.026.i.i.i.i, i64 8
  %38 = load i32, ptr %37, align 8, !tbaa !52
  %39 = icmp ugt i32 %38, 1
  br label %_ZNK10num_occurs12get_num_occsEP4expr.exit

_ZNK10num_occurs12get_num_occsEP4expr.exit:       ; preds = %.lr.ph.i.i.i.i, %35, %.lr.ph39.i.i.i.i, %.loopexit.i, %.preheader.i.i.i.i, %2
  %40 = phi i1 [ false, %2 ], [ %39, %.loopexit.i ], [ false, %.preheader.i.i.i.i ], [ false, %.lr.ph39.i.i.i.i ], [ false, %35 ], [ false, %.lr.ph.i.i.i.i ]
  ret i1 %40
}